target datalayout = "e-m:e-p270:32:32-p271:32:32-p272:64:64-i64:64-i128:128-f80:128-n8:16:32:64-S128"
target triple = "x86_64-pc-linux-gnu"

%class.BigInteger = type { i32, %class.BigUnsigned }
%class.BigUnsigned = type { %class.NumberlikeArray }
%class.NumberlikeArray = type { i32, i32, ptr }

; Function Attrs: mustprogress uwtable
define linkonce_odr void @_ZN15NumberlikeArrayImE8allocateEj(ptr noundef nonnull align 8 dereferenceable(16) %0, i32 noundef %1) #0 comdat align 2 {
  %3 = alloca ptr, align 8
  %4 = alloca i32, align 4
  store ptr %0, ptr %3, align 8, !tbaa !25
  store i32 %1, ptr %4, align 4, !tbaa !21
  %5 = load ptr, ptr %3, align 8
  %6 = load i32, ptr %4, align 4, !tbaa !21
  %7 = getelementptr inbounds nuw %class.NumberlikeArray, ptr %5, i32 0, i32 0
  %8 = load i32, ptr %7, align 8, !tbaa !35
  %9 = icmp ugt i32 %6, %8
  br i1 %9, label %10, label %27

10:                                               ; preds = %2
  %11 = getelementptr inbounds nuw %class.NumberlikeArray, ptr %5, i32 0, i32 2
  %12 = load ptr, ptr %11, align 8, !tbaa !27
  %13 = icmp eq ptr %12, null
  br i1 %13, label %15, label %14

14:                                               ; preds = %10
  call void @_ZdaPv(ptr noundef %12) #11
  br label %15

15:                                               ; preds = %14, %10
  %16 = load i32, ptr %4, align 4, !tbaa !21
  %17 = getelementptr inbounds nuw %class.NumberlikeArray, ptr %5, i32 0, i32 0
  store i32 %16, ptr %17, align 8, !tbaa !35
  %18 = getelementptr inbounds nuw %class.NumberlikeArray, ptr %5, i32 0, i32 0
  %19 = load i32, ptr %18, align 8, !tbaa !35
  %20 = zext i32 %19 to i64
  %21 = call { i64, i1 } @llvm.umul.with.overflow.i64(i64 %20, i64 8)
  %22 = extractvalue { i64, i1 } %21, 1
  %23 = extractvalue { i64, i1 } %21, 0
  %24 = select i1 %22, i64 -1, i64 %23
  %25 = call noalias noundef nonnull ptr @_Znam(i64 noundef %24) #12
  %26 = getelementptr inbounds nuw %class.NumberlikeArray, ptr %5, i32 0, i32 2
  store ptr %25, ptr %26, align 8, !tbaa !27
  br label %27

27:                                               ; preds = %15, %2
  ret void
}

; Function Attrs: mustprogress nounwind uwtable
define linkonce_odr void @_ZN15NumberlikeArrayImEC2Ev(ptr noundef nonnull align 8 dereferenceable(16) %0) unnamed_addr #1 comdat align 2 {
  %2 = alloca ptr, align 8
  store ptr %0, ptr %2, align 8, !tbaa !25
  %3 = load ptr, ptr %2, align 8
  %4 = getelementptr inbounds nuw %class.NumberlikeArray, ptr %3, i32 0, i32 0
  store i32 0, ptr %4, align 8, !tbaa !35
  %5 = getelementptr inbounds nuw %class.NumberlikeArray, ptr %3, i32 0, i32 1
  store i32 0, ptr %5, align 4, !tbaa !32
  %6 = getelementptr inbounds nuw %class.NumberlikeArray, ptr %3, i32 0, i32 2
  store ptr null, ptr %6, align 8, !tbaa !27
  ret void
}

; Function Attrs: mustprogress uwtable
define linkonce_odr void @_ZN15NumberlikeArrayImEaSERKS0_(ptr noundef nonnull align 8 dereferenceable(16) %0, ptr noundef nonnull align 8 dereferenceable(16) %1) #0 comdat align 2 {
  %3 = alloca ptr, align 8
  %4 = alloca ptr, align 8
  %5 = alloca i32, align 4
  store ptr %0, ptr %3, align 8, !tbaa !25
  store ptr %1, ptr %4, align 8, !tbaa !25
  %6 = load ptr, ptr %3, align 8
  %7 = load ptr, ptr %4, align 8, !tbaa !25
  %8 = icmp eq ptr %6, %7
  br i1 %8, label %9, label %10

9:                                                ; preds = %2
  br label %39

10:                                               ; preds = %2
  %11 = load ptr, ptr %4, align 8, !tbaa !25
  %12 = getelementptr inbounds nuw %class.NumberlikeArray, ptr %11, i32 0, i32 1
  %13 = load i32, ptr %12, align 4, !tbaa !32
  %14 = getelementptr inbounds nuw %class.NumberlikeArray, ptr %6, i32 0, i32 1
  store i32 %13, ptr %14, align 4, !tbaa !32
  %15 = getelementptr inbounds nuw %class.NumberlikeArray, ptr %6, i32 0, i32 1
  %16 = load i32, ptr %15, align 4, !tbaa !32
  call void @_ZN15NumberlikeArrayImE8allocateEj(ptr noundef nonnull align 8 dereferenceable(16) %6, i32 noundef %16)
  call void @llvm.lifetime.start.p0(i64 4, ptr %5) #9
  store i32 0, ptr %5, align 4, !tbaa !21
  br label %17

17:                                               ; preds = %35, %10
  %18 = load i32, ptr %5, align 4, !tbaa !21
  %19 = getelementptr inbounds nuw %class.NumberlikeArray, ptr %6, i32 0, i32 1
  %20 = load i32, ptr %19, align 4, !tbaa !32
  %21 = icmp ult i32 %18, %20
  br i1 %21, label %22, label %38

22:                                               ; preds = %17
  %23 = load ptr, ptr %4, align 8, !tbaa !25
  %24 = getelementptr inbounds nuw %class.NumberlikeArray, ptr %23, i32 0, i32 2
  %25 = load ptr, ptr %24, align 8, !tbaa !27
  %26 = load i32, ptr %5, align 4, !tbaa !21
  %27 = zext i32 %26 to i64
  %28 = getelementptr inbounds nuw i64, ptr %25, i64 %27
  %29 = load i64, ptr %28, align 8, !tbaa !28
  %30 = getelementptr inbounds nuw %class.NumberlikeArray, ptr %6, i32 0, i32 2
  %31 = load ptr, ptr %30, align 8, !tbaa !27
  %32 = load i32, ptr %5, align 4, !tbaa !21
  %33 = zext i32 %32 to i64
  %34 = getelementptr inbounds nuw i64, ptr %31, i64 %33
  store i64 %29, ptr %34, align 8, !tbaa !28
  br label %35

35:                                               ; preds = %22
  %36 = load i32, ptr %5, align 4, !tbaa !21
  %37 = add i32 %36, 1
  store i32 %37, ptr %5, align 4, !tbaa !21
  br label %17, !llvm.loop !33

38:                                               ; preds = %17
  call void @llvm.lifetime.end.p0(i64 4, ptr %5) #9
  br label %39

39:                                               ; preds = %38, %9
  ret void
}

; Function Attrs: mustprogress nounwind uwtable
define linkonce_odr void @_ZN15NumberlikeArrayImED2Ev(ptr noundef nonnull align 8 dereferenceable(16) %0) unnamed_addr #1 comdat align 2 {
  %2 = alloca ptr, align 8
  store ptr %0, ptr %2, align 8, !tbaa !25
  %3 = load ptr, ptr %2, align 8
  %4 = getelementptr inbounds nuw %class.NumberlikeArray, ptr %3, i32 0, i32 2
  %5 = load ptr, ptr %4, align 8, !tbaa !27
  %6 = icmp eq ptr %5, null
  br i1 %6, label %8, label %7

7:                                                ; preds = %1
  call void @_ZdaPv(ptr noundef %5) #11
  br label %8

8:                                                ; preds = %7, %1
  ret void
}

; Function Attrs: mustprogress uwtable
define linkonce_odr void @_ZN11BigUnsignedC2Ev(ptr noundef nonnull align 8 dereferenceable(16) %0) unnamed_addr #0 comdat align 2 {
  %2 = alloca ptr, align 8
  store ptr %0, ptr %2, align 8, !tbaa !18
  %3 = load ptr, ptr %2, align 8
  call void @_ZN15NumberlikeArrayImEC2Ev(ptr noundef nonnull align 8 dereferenceable(16) %3)
  ret void
}

; Function Attrs: mustprogress uwtable
define linkonce_odr void @_ZN11BigUnsignedaSERKS_(ptr noundef nonnull align 8 dereferenceable(16) %0, ptr noundef nonnull align 8 dereferenceable(16) %1) #0 comdat align 2 {
  %3 = alloca ptr, align 8
  %4 = alloca ptr, align 8
  store ptr %0, ptr %3, align 8, !tbaa !18
  store ptr %1, ptr %4, align 8, !tbaa !18
  %5 = load ptr, ptr %3, align 8
  %6 = load ptr, ptr %4, align 8, !tbaa !18
  call void @_ZN15NumberlikeArrayImEaSERKS0_(ptr noundef nonnull align 8 dereferenceable(16) %5, ptr noundef nonnull align 8 dereferenceable(16) %6)
  ret void
}

; Function Attrs: inlinehint mustprogress nounwind uwtable
define linkonce_odr void @_ZN10BigIntegerD2Ev(ptr noundef nonnull align 8 dereferenceable(24) %0) unnamed_addr #4 comdat align 2 {
  %2 = alloca ptr, align 8
  store ptr %0, ptr %2, align 8, !tbaa !6
  %3 = load ptr, ptr %2, align 8
  %4 = getelementptr inbounds nuw %class.BigInteger, ptr %3, i32 0, i32 1
  call void @_ZN15NumberlikeArrayImED2Ev(ptr noundef nonnull align 8 dereferenceable(16) %4) #9
  ret void
}

; Function Attrs: mustprogress uwtable
define void @_ZN10BigIntegeraSERKS_(ptr noundef nonnull align 8 dereferenceable(24) %0, ptr noundef nonnull align 8 dereferenceable(24) %1) #0 align 2 {
  %3 = alloca ptr, align 8
  %4 = alloca ptr, align 8
  store ptr %0, ptr %3, align 8, !tbaa !6
  store ptr %1, ptr %4, align 8, !tbaa !6
  %5 = load ptr, ptr %3, align 8
  %6 = load ptr, ptr %4, align 8, !tbaa !6
  %7 = icmp eq ptr %5, %6
  br i1 %7, label %8, label %9

8:                                                ; preds = %2
  br label %17

9:                                                ; preds = %2
  %10 = load ptr, ptr %4, align 8, !tbaa !6
  %11 = getelementptr inbounds nuw %class.BigInteger, ptr %10, i32 0, i32 0
  %12 = load i32, ptr %11, align 8, !tbaa !11
  %13 = getelementptr inbounds nuw %class.BigInteger, ptr %5, i32 0, i32 0
  store i32 %12, ptr %13, align 8, !tbaa !11
  %14 = load ptr, ptr %4, align 8, !tbaa !6
  %15 = getelementptr inbounds nuw %class.BigInteger, ptr %14, i32 0, i32 1
  %16 = getelementptr inbounds nuw %class.BigInteger, ptr %5, i32 0, i32 1
  call void @_ZN11BigUnsignedaSERKS_(ptr noundef nonnull align 8 dereferenceable(16) %16, ptr noundef nonnull align 8 dereferenceable(16) %15)
  br label %17

17:                                               ; preds = %9, %8
  ret void
}

; Function Attrs: mustprogress uwtable
define linkonce_odr void @_ZN10BigIntegerC2Ev(ptr noundef nonnull align 8 dereferenceable(24) %0) unnamed_addr #0 comdat align 2 {
  %2 = alloca ptr, align 8
  store ptr %0, ptr %2, align 8, !tbaa !6
  %3 = load ptr, ptr %2, align 8
  %4 = getelementptr inbounds nuw %class.BigInteger, ptr %3, i32 0, i32 0
  store i32 0, ptr %4, align 8, !tbaa !11
  %5 = getelementptr inbounds nuw %class.BigInteger, ptr %3, i32 0, i32 1
  call void @_ZN11BigUnsignedC2Ev(ptr noundef nonnull align 8 dereferenceable(16) %5)
  ret void
}

; Function Attrs: mustprogress uwtable
define void @_ZN10BigInteger6negateERKS_(ptr noundef nonnull align 8 dereferenceable(24) %0, ptr noundef nonnull align 8 dereferenceable(24) %1) #0 align 2 personality ptr @__gxx_personality_v0 {
  %3 = alloca ptr, align 8
  %4 = alloca ptr, align 8
  %5 = alloca %class.BigInteger, align 8
  %6 = alloca ptr, align 8
  %7 = alloca i32, align 4
  store ptr %0, ptr %3, align 8, !tbaa !6
  store ptr %1, ptr %4, align 8, !tbaa !6
  %8 = load ptr, ptr %3, align 8
  %9 = load ptr, ptr %4, align 8, !tbaa !6
  %10 = icmp eq ptr %8, %9
  br i1 %10, label %11, label %19

11:                                               ; preds = %2
  call void @llvm.lifetime.start.p0(i64 24, ptr %5) #9
  call void @_ZN10BigIntegerC2Ev(ptr noundef nonnull align 8 dereferenceable(24) %5)
  %12 = load ptr, ptr %4, align 8, !tbaa !6
  invoke void @_ZN10BigInteger6negateERKS_(ptr noundef nonnull align 8 dereferenceable(24) %5, ptr noundef nonnull align 8 dereferenceable(24) %12)
          to label %13 unwind label %15

13:                                               ; preds = %11
  invoke void @_ZN10BigIntegeraSERKS_(ptr noundef nonnull align 8 dereferenceable(24) %8, ptr noundef nonnull align 8 dereferenceable(24) %5)
          to label %14 unwind label %15

14:                                               ; preds = %13
  call void @_ZN10BigIntegerD2Ev(ptr noundef nonnull align 8 dereferenceable(24) %5) #9
  call void @llvm.lifetime.end.p0(i64 24, ptr %5) #9
  br label %28

15:                                               ; preds = %13, %11
  %16 = landingpad { ptr, i32 }
          cleanup
  %17 = extractvalue { ptr, i32 } %16, 0
  store ptr %17, ptr %6, align 8
  %18 = extractvalue { ptr, i32 } %16, 1
  store i32 %18, ptr %7, align 4
  call void @_ZN10BigIntegerD2Ev(ptr noundef nonnull align 8 dereferenceable(24) %5) #9
  call void @llvm.lifetime.end.p0(i64 24, ptr %5) #9
  br label %29

19:                                               ; preds = %2
  %20 = load ptr, ptr %4, align 8, !tbaa !6
  %21 = getelementptr inbounds nuw %class.BigInteger, ptr %20, i32 0, i32 1
  %22 = getelementptr inbounds nuw %class.BigInteger, ptr %8, i32 0, i32 1
  call void @_ZN11BigUnsignedaSERKS_(ptr noundef nonnull align 8 dereferenceable(16) %22, ptr noundef nonnull align 8 dereferenceable(16) %21)
  %23 = load ptr, ptr %4, align 8, !tbaa !6
  %24 = getelementptr inbounds nuw %class.BigInteger, ptr %23, i32 0, i32 0
  %25 = load i32, ptr %24, align 8, !tbaa !11
  %26 = sub nsw i32 0, %25
  %27 = getelementptr inbounds nuw %class.BigInteger, ptr %8, i32 0, i32 0
  store i32 %26, ptr %27, align 8, !tbaa !11
  br label %28

28:                                               ; preds = %19, %14
  ret void

29:                                               ; preds = %15
  %30 = load ptr, ptr %6, align 8
  %31 = load i32, ptr %7, align 4
  %32 = insertvalue { ptr, i32 } poison, ptr %30, 0
  %33 = insertvalue { ptr, i32 } %32, i32 %31, 1
  resume { ptr, i32 } %33
}