; Function Attrs: mustprogress uwtable
define void @_ZN10BigInteger6negateERKS_(ptr noundef nonnull align 8 captures(address) dereferenceable(24) %0, ptr noundef nonnull align 8 captures(address) dereferenceable(24) %1) local_unnamed_addr #0 align 2 personality ptr @__gxx_personality_v0 {
  %3 = alloca %class.BigInteger, align 8
  %4 = icmp eq ptr %0, %1
  br i1 %4, label %5, label %45

5:                                                ; preds = %2
  call void @llvm.lifetime.start.p0(i64 24, ptr nonnull %3) #11
  store i32 0, ptr %3, align 8, !tbaa !6
  %6 = getelementptr inbounds nuw i8, ptr %3, i64 8
  call void @llvm.memset.p0.i64(ptr noundef nonnull align 8 dereferenceable(16) %6, i8 0, i64 16, i1 false)
  invoke void @_ZN10BigInteger6negateERKS_(ptr noundef nonnull align 8 dereferenceable(24) %3, ptr noundef nonnull align 8 dereferenceable(24) %1)
          to label %7 unwind label %39

7:                                                ; preds = %5
  %8 = icmp eq ptr %0, %3
  br i1 %8, label %_ZN10BigIntegeraSERKS_.exit, label %9

9:                                                ; preds = %7
  %10 = load i32, ptr %3, align 8, !tbaa !6
  store i32 %10, ptr %0, align 8, !tbaa !6
  %11 = getelementptr inbounds nuw i8, ptr %0, i64 8
  %12 = getelementptr inbounds nuw i8, ptr %3, i64 12
  %13 = load i32, ptr %12, align 4, !tbaa !16
  %14 = getelementptr inbounds nuw i8, ptr %0, i64 12
  store i32 %13, ptr %14, align 4, !tbaa !16
  %15 = load i32, ptr %11, align 8, !tbaa !17
  %16 = icmp ugt i32 %13, %15
  br i1 %16, label %17, label %_ZN15NumberlikeArrayImE8allocateEj.exit.i.i.i

17:                                               ; preds = %9
  %18 = getelementptr inbounds nuw i8, ptr %0, i64 16
  %19 = load ptr, ptr %18, align 8, !tbaa !18
  %20 = icmp eq ptr %19, null
  br i1 %20, label %22, label %21

21:                                               ; preds = %17
  call void @_ZdaPv(ptr noundef nonnull %19) #9
  %.pre.pre.i.i.i = load i32, ptr %14, align 4, !tbaa !16
  br label %22

22:                                               ; preds = %21, %17
  %.pre.i.i.i = phi i32 [ %.pre.pre.i.i.i, %21 ], [ %13, %17 ]
  store i32 %13, ptr %11, align 8, !tbaa !17
  %23 = zext i32 %13 to i64
  %24 = shl nuw nsw i64 %23, 3
  %25 = invoke noalias noundef nonnull ptr @_Znam(i64 noundef %24) #10
          to label %.noexc unwind label %39

.noexc:                                           ; preds = %22
  store ptr %25, ptr %18, align 8, !tbaa !18
  br label %_ZN15NumberlikeArrayImE8allocateEj.exit.i.i.i

_ZN15NumberlikeArrayImE8allocateEj.exit.i.i.i:    ; preds = %.noexc, %9
  %26 = phi i32 [ %13, %9 ], [ %.pre.i.i.i, %.noexc ]
  %.not.i.i.i = icmp eq i32 %26, 0
  br i1 %.not.i.i.i, label %_ZN10BigIntegeraSERKS_.exit, label %.lr.ph.i.i.i

.lr.ph.i.i.i:                                     ; preds = %_ZN15NumberlikeArrayImE8allocateEj.exit.i.i.i
  %27 = getelementptr inbounds nuw i8, ptr %3, i64 16
  %28 = load ptr, ptr %27, align 8, !tbaa !18
  %29 = getelementptr inbounds nuw i8, ptr %0, i64 16
  %30 = load ptr, ptr %29, align 8, !tbaa !18
  %wide.trip.count.i.i.i = zext i32 %26 to i64
  br label %31

31:                                               ; preds = %31, %.lr.ph.i.i.i
  %indvars.iv.i.i.i = phi i64 [ 0, %.lr.ph.i.i.i ], [ %indvars.iv.next.i.i.i, %31 ]
  %32 = getelementptr inbounds nuw i64, ptr %28, i64 %indvars.iv.i.i.i
  %33 = load i64, ptr %32, align 8, !tbaa !19
  %34 = getelementptr inbounds nuw i64, ptr %30, i64 %indvars.iv.i.i.i
  store i64 %33, ptr %34, align 8, !tbaa !19
  %indvars.iv.next.i.i.i = add nuw nsw i64 %indvars.iv.i.i.i, 1
  %exitcond.not.i.i.i = icmp eq i64 %indvars.iv.next.i.i.i, %wide.trip.count.i.i.i
  br i1 %exitcond.not.i.i.i, label %_ZN10BigIntegeraSERKS_.exit, label %31, !llvm.loop !21

_ZN10BigIntegeraSERKS_.exit:                      ; preds = %31, %_ZN15NumberlikeArrayImE8allocateEj.exit.i.i.i, %7
  %35 = getelementptr inbounds nuw i8, ptr %3, i64 16
  %36 = load ptr, ptr %35, align 8, !tbaa !18
  %37 = icmp eq ptr %36, null
  br i1 %37, label %_ZN10BigIntegerD2Ev.exit, label %38

38:                                               ; preds = %_ZN10BigIntegeraSERKS_.exit
  call void @_ZdaPv(ptr noundef nonnull %36) #9
  br label %_ZN10BigIntegerD2Ev.exit

_ZN10BigIntegerD2Ev.exit:                         ; preds = %_ZN10BigIntegeraSERKS_.exit, %38
  call void @llvm.lifetime.end.p0(i64 24, ptr nonnull %3) #11
  br label %72

39:                                               ; preds = %22, %5
  %40 = landingpad { ptr, i32 }
          cleanup
  %41 = getelementptr inbounds nuw i8, ptr %3, i64 16
  %42 = load ptr, ptr %41, align 8, !tbaa !18
  %43 = icmp eq ptr %42, null
  br i1 %43, label %_ZN10BigIntegerD2Ev.exit8, label %44

44:                                               ; preds = %39
  call void @_ZdaPv(ptr noundef nonnull %42) #9
  br label %_ZN10BigIntegerD2Ev.exit8

_ZN10BigIntegerD2Ev.exit8:                        ; preds = %39, %44
  call void @llvm.lifetime.end.p0(i64 24, ptr nonnull %3) #11
  resume { ptr, i32 } %40

45:                                               ; preds = %2
  %46 = getelementptr inbounds nuw i8, ptr %0, i64 8
  %47 = getelementptr inbounds nuw i8, ptr %1, i64 12
  %48 = load i32, ptr %47, align 4, !tbaa !16
  %49 = getelementptr inbounds nuw i8, ptr %0, i64 12
  store i32 %48, ptr %49, align 4, !tbaa !16
  %50 = load i32, ptr %46, align 8, !tbaa !17
  %51 = icmp ugt i32 %48, %50
  br i1 %51, label %52, label %_ZN15NumberlikeArrayImE8allocateEj.exit.i.i

52:                                               ; preds = %45
  %53 = getelementptr inbounds nuw i8, ptr %0, i64 16
  %54 = load ptr, ptr %53, align 8, !tbaa !18
  %55 = icmp eq ptr %54, null
  br i1 %55, label %57, label %56

56:                                               ; preds = %52
  tail call void @_ZdaPv(ptr noundef nonnull %54) #9
  %.pre.pre.i.i = load i32, ptr %49, align 4, !tbaa !16
  br label %57

57:                                               ; preds = %56, %52
  %.pre.i.i = phi i32 [ %.pre.pre.i.i, %56 ], [ %48, %52 ]
  store i32 %48, ptr %46, align 8, !tbaa !17
  %58 = zext i32 %48 to i64
  %59 = shl nuw nsw i64 %58, 3
  %60 = tail call noalias noundef nonnull ptr @_Znam(i64 noundef %59) #10
  store ptr %60, ptr %53, align 8, !tbaa !18
  br label %_ZN15NumberlikeArrayImE8allocateEj.exit.i.i

_ZN15NumberlikeArrayImE8allocateEj.exit.i.i:      ; preds = %57, %45
  %61 = phi i32 [ %48, %45 ], [ %.pre.i.i, %57 ]
  %.not.i.i = icmp eq i32 %61, 0
  br i1 %.not.i.i, label %_ZN11BigUnsignedaSERKS_.exit, label %.lr.ph.i.i

.lr.ph.i.i:                                       ; preds = %_ZN15NumberlikeArrayImE8allocateEj.exit.i.i
  %62 = getelementptr inbounds nuw i8, ptr %1, i64 16
  %63 = load ptr, ptr %62, align 8, !tbaa !18
  %64 = getelementptr inbounds nuw i8, ptr %0, i64 16
  %65 = load ptr, ptr %64, align 8, !tbaa !18
  %wide.trip.count.i.i = zext i32 %61 to i64
  br label %66

66:                                               ; preds = %66, %.lr.ph.i.i
  %indvars.iv.i.i = phi i64 [ 0, %.lr.ph.i.i ], [ %indvars.iv.next.i.i, %66 ]
  %67 = getelementptr inbounds nuw i64, ptr %63, i64 %indvars.iv.i.i
  %68 = load i64, ptr %67, align 8, !tbaa !19
  %69 = getelementptr inbounds nuw i64, ptr %65, i64 %indvars.iv.i.i
  store i64 %68, ptr %69, align 8, !tbaa !19
  %indvars.iv.next.i.i = add nuw nsw i64 %indvars.iv.i.i, 1
  %exitcond.not.i.i = icmp eq i64 %indvars.iv.next.i.i, %wide.trip.count.i.i
  br i1 %exitcond.not.i.i, label %_ZN11BigUnsignedaSERKS_.exit, label %66, !llvm.loop !21

_ZN11BigUnsignedaSERKS_.exit:                     ; preds = %66, %_ZN15NumberlikeArrayImE8allocateEj.exit.i.i
  %70 = load i32, ptr %1, align 8, !tbaa !6
  %71 = sub nsw i32 0, %70
  store i32 %71, ptr %0, align 8, !tbaa !6
  br label %72

72:                                               ; preds = %_ZN11BigUnsignedaSERKS_.exit, %_ZN10BigIntegerD2Ev.exit
  ret void
}